; Listing generated by Microsoft (R) Optimizing Compiler Version 16.00.30319.01 

	TITLE	C:\Users\naoya\Documents\Visual Studio 2010\npca.jp\3Dモニター制作\3DMonitor-Direct2D\3DMonitor\epoint.cpp
	.686P
	.XMM
	include listing.inc
	.model	flat

INCLUDELIB MSVCRTD
INCLUDELIB OLDNAMES

PUBLIC	??_GWinEngine@@QAEPAXI@Z			; WinEngine::`scalar deleting destructor'
PUBLIC	_wWinMain@16
EXTRN	?MsgLoop@WinEngine@@QAEJXZ:PROC			; WinEngine::MsgLoop
EXTRN	?win_engine@@3PAVWinEngine@@A:DWORD		; win_engine
EXTRN	??0WinEngine@@QAE@PAUHINSTANCE__@@PAJH@Z:PROC	; WinEngine::WinEngine
EXTRN	??2@YAPAXI@Z:PROC				; operator new
EXTRN	__RTC_CheckEsp:PROC
EXTRN	@_RTC_CheckStackVars@8:PROC
EXTRN	__RTC_Shutdown:PROC
EXTRN	__RTC_InitBase:PROC
;	COMDAT rtc$TMZ
; File c:\users\naoya\documents\visual studio 2010\npca.jp\3dモニター制作\3dmonitor-direct2d\3dmonitor\epoint.cpp
rtc$TMZ	SEGMENT
__RTC_Shutdown.rtc$TMZ DD FLAT:__RTC_Shutdown
rtc$TMZ	ENDS
;	COMDAT rtc$IMZ
rtc$IMZ	SEGMENT
__RTC_InitBase.rtc$IMZ DD FLAT:__RTC_InitBase
; Function compile flags: /Odtp /RTCsu /ZI
rtc$IMZ	ENDS
;	COMDAT _wWinMain@16
_TEXT	SEGMENT
tv86 = -268						; size = 4
tv79 = -268						; size = 4
tv72 = -268						; size = 4
$T78454 = -260						; size = 4
$T78457 = -248						; size = 4
$T78458 = -236						; size = 4
$T78461 = -224						; size = 4
$T78462 = -212						; size = 4
_result$ = -8						; size = 4
_hInstance$ = 8						; size = 4
_hPrevInstance$ = 12					; size = 4
_lpCmdLine$ = 16					; size = 4
_nCmdShow$ = 20						; size = 4
_wWinMain@16 PROC					; COMDAT
; Line 15
	push	ebp
	mov	ebp, esp
	sub	esp, 268				; 0000010cH
	push	ebx
	push	esi
	push	edi
	lea	edi, DWORD PTR [ebp-268]
	mov	ecx, 67					; 00000043H
	mov	eax, -858993460				; ccccccccH
	rep stosd
; Line 16
	mov	DWORD PTR _result$[ebp], 0
; Line 17
	push	116					; 00000074H
	call	??2@YAPAXI@Z				; operator new
	add	esp, 4
	mov	DWORD PTR $T78454[ebp], eax
	cmp	DWORD PTR $T78454[ebp], 0
	je	SHORT $LN6@wWinMain
	mov	eax, DWORD PTR _nCmdShow$[ebp]
	push	eax
	lea	ecx, DWORD PTR _result$[ebp]
	push	ecx
	mov	edx, DWORD PTR _hInstance$[ebp]
	push	edx
	mov	ecx, DWORD PTR $T78454[ebp]
	call	??0WinEngine@@QAE@PAUHINSTANCE__@@PAJH@Z ; WinEngine::WinEngine
	mov	DWORD PTR tv72[ebp], eax
	jmp	SHORT $LN7@wWinMain
$LN6@wWinMain:
	mov	DWORD PTR tv72[ebp], 0
$LN7@wWinMain:
	mov	eax, DWORD PTR tv72[ebp]
	mov	DWORD PTR ?win_engine@@3PAVWinEngine@@A, eax ; win_engine
; Line 18
	cmp	DWORD PTR _result$[ebp], 0
	jge	SHORT $LN3@wWinMain
; Line 20
	cmp	DWORD PTR ?win_engine@@3PAVWinEngine@@A, 0 ; win_engine
	je	SHORT $LN2@wWinMain
	mov	eax, DWORD PTR ?win_engine@@3PAVWinEngine@@A ; win_engine
	mov	DWORD PTR $T78458[ebp], eax
	mov	ecx, DWORD PTR $T78458[ebp]
	mov	DWORD PTR $T78457[ebp], ecx
	cmp	DWORD PTR $T78457[ebp], 0
	je	SHORT $LN8@wWinMain
	push	1
	mov	ecx, DWORD PTR $T78457[ebp]
	call	??_GWinEngine@@QAEPAXI@Z
	mov	DWORD PTR tv79[ebp], eax
	jmp	SHORT $LN9@wWinMain
$LN8@wWinMain:
	mov	DWORD PTR tv79[ebp], 0
$LN9@wWinMain:
	mov	DWORD PTR ?win_engine@@3PAVWinEngine@@A, 0 ; win_engine
$LN2@wWinMain:
; Line 21
	mov	eax, -2147467259			; 80004005H
	jmp	SHORT $LN4@wWinMain
$LN3@wWinMain:
; Line 25
	mov	ecx, DWORD PTR ?win_engine@@3PAVWinEngine@@A ; win_engine
	call	?MsgLoop@WinEngine@@QAEJXZ		; WinEngine::MsgLoop
; Line 27
	cmp	DWORD PTR ?win_engine@@3PAVWinEngine@@A, 0 ; win_engine
	je	SHORT $LN1@wWinMain
	mov	eax, DWORD PTR ?win_engine@@3PAVWinEngine@@A ; win_engine
	mov	DWORD PTR $T78462[ebp], eax
	mov	ecx, DWORD PTR $T78462[ebp]
	mov	DWORD PTR $T78461[ebp], ecx
	cmp	DWORD PTR $T78461[ebp], 0
	je	SHORT $LN10@wWinMain
	push	1
	mov	ecx, DWORD PTR $T78461[ebp]
	call	??_GWinEngine@@QAEPAXI@Z
	mov	DWORD PTR tv86[ebp], eax
	jmp	SHORT $LN11@wWinMain
$LN10@wWinMain:
	mov	DWORD PTR tv86[ebp], 0
$LN11@wWinMain:
	mov	DWORD PTR ?win_engine@@3PAVWinEngine@@A, 0 ; win_engine
$LN1@wWinMain:
; Line 29
	xor	eax, eax
$LN4@wWinMain:
; Line 30
	push	edx
	mov	ecx, ebp
	push	eax
	lea	edx, DWORD PTR $LN14@wWinMain
	call	@_RTC_CheckStackVars@8
	pop	eax
	pop	edx
	pop	edi
	pop	esi
	pop	ebx
	add	esp, 268				; 0000010cH
	cmp	ebp, esp
	call	__RTC_CheckEsp
	mov	esp, ebp
	pop	ebp
	ret	16					; 00000010H
	npad	1
$LN14@wWinMain:
	DD	1
	DD	$LN13@wWinMain
$LN13@wWinMain:
	DD	-8					; fffffff8H
	DD	4
	DD	$LN12@wWinMain
$LN12@wWinMain:
	DB	114					; 00000072H
	DB	101					; 00000065H
	DB	115					; 00000073H
	DB	117					; 00000075H
	DB	108					; 0000006cH
	DB	116					; 00000074H
	DB	0
_wWinMain@16 ENDP
_TEXT	ENDS
EXTRN	??3@YAXPAX@Z:PROC				; operator delete
EXTRN	??1WinEngine@@QAE@XZ:PROC			; WinEngine::~WinEngine
; Function compile flags: /Odtp /RTCsu /ZI
;	COMDAT ??_GWinEngine@@QAEPAXI@Z
_TEXT	SEGMENT
_this$ = -8						; size = 4
___flags$ = 8						; size = 4
??_GWinEngine@@QAEPAXI@Z PROC				; WinEngine::`scalar deleting destructor', COMDAT
; _this$ = ecx
	push	ebp
	mov	ebp, esp
	sub	esp, 204				; 000000ccH
	push	ebx
	push	esi
	push	edi
	push	ecx
	lea	edi, DWORD PTR [ebp-204]
	mov	ecx, 51					; 00000033H
	mov	eax, -858993460				; ccccccccH
	rep stosd
	pop	ecx
	mov	DWORD PTR _this$[ebp], ecx
	mov	ecx, DWORD PTR _this$[ebp]
	call	??1WinEngine@@QAE@XZ			; WinEngine::~WinEngine
	mov	eax, DWORD PTR ___flags$[ebp]
	and	eax, 1
	je	SHORT $LN1@scalar
	mov	eax, DWORD PTR _this$[ebp]
	push	eax
	call	??3@YAXPAX@Z				; operator delete
	add	esp, 4
$LN1@scalar:
	mov	eax, DWORD PTR _this$[ebp]
	pop	edi
	pop	esi
	pop	ebx
	add	esp, 204				; 000000ccH
	cmp	ebp, esp
	call	__RTC_CheckEsp
	mov	esp, ebp
	pop	ebp
	ret	4
??_GWinEngine@@QAEPAXI@Z ENDP				; WinEngine::`scalar deleting destructor'
_TEXT	ENDS
END
