; Listing generated by Microsoft (R) Optimizing Compiler Version 16.00.30319.01 

	TITLE	C:\Users\naoya\Documents\Visual Studio 2010\npca.jp\3Dモニター制作\3DMonitor-分岐\3DMonitor\model_data.cpp
	.686P
	.XMM
	include listing.inc
	.model	flat

INCLUDELIB MSVCRTD
INCLUDELIB OLDNAMES

PUBLIC	?LoadFromXFileModel@ModelData@@AAEJPB_WPAUIDirect3DDevice9@@@Z ; ModelData::LoadFromXFileModel
PUBLIC	?InitModel@ModelData@@AAEXXZ			; ModelData::InitModel
PUBLIC	??0ModelData@@QAE@PB_WPAHMPAUIDirect3DDevice9@@@Z ; ModelData::ModelData
EXTRN	__fltused:DWORD
EXTRN	__RTC_CheckEsp:PROC
EXTRN	__RTC_Shutdown:PROC
EXTRN	__RTC_InitBase:PROC
;	COMDAT rtc$TMZ
; File c:\users\naoya\documents\visual studio 2010\npca.jp\3dモニター制作\3dmonitor-分岐\3dmonitor\model_data.cpp
rtc$TMZ	SEGMENT
__RTC_Shutdown.rtc$TMZ DD FLAT:__RTC_Shutdown
rtc$TMZ	ENDS
;	COMDAT rtc$IMZ
rtc$IMZ	SEGMENT
__RTC_InitBase.rtc$IMZ DD FLAT:__RTC_InitBase
; Function compile flags: /Odtp /RTCsu /ZI
rtc$IMZ	ENDS
;	COMDAT ??0ModelData@@QAE@PB_WPAHMPAUIDirect3DDevice9@@@Z
_TEXT	SEGMENT
_this$ = -8						; size = 4
_ModelName$ = 8						; size = 4
_error_flag$ = 12					; size = 4
_scale$ = 16						; size = 4
_d3d_device$ = 20					; size = 4
??0ModelData@@QAE@PB_WPAHMPAUIDirect3DDevice9@@@Z PROC	; ModelData::ModelData, COMDAT
; _this$ = ecx
; Line 10
	push	ebp
	mov	ebp, esp
	sub	esp, 204				; 000000ccH
	push	ebx
	push	esi
	push	edi
	push	ecx
	lea	edi, DWORD PTR [ebp-204]
	mov	ecx, 51					; 00000033H
	mov	eax, -858993460				; ccccccccH
	rep stosd
	pop	ecx
	mov	DWORD PTR _this$[ebp], ecx
; Line 11
	mov	ecx, DWORD PTR _this$[ebp]
	call	?InitModel@ModelData@@AAEXXZ		; ModelData::InitModel
; Line 12
	mov	eax, DWORD PTR _d3d_device$[ebp]
	push	eax
	mov	ecx, DWORD PTR _ModelName$[ebp]
	push	ecx
	mov	ecx, DWORD PTR _this$[ebp]
	call	?LoadFromXFileModel@ModelData@@AAEJPB_WPAUIDirect3DDevice9@@@Z ; ModelData::LoadFromXFileModel
	test	eax, eax
	jge	SHORT $LN1@ModelData
; Line 14
	mov	eax, DWORD PTR _error_flag$[ebp]
	mov	DWORD PTR [eax], 1
$LN1@ModelData:
; Line 16
	mov	eax, DWORD PTR _this$[ebp]
	fld	DWORD PTR _scale$[ebp]
	fstp	DWORD PTR [eax+16]
; Line 17
	mov	eax, DWORD PTR _this$[ebp]
	pop	edi
	pop	esi
	pop	ebx
	add	esp, 204				; 000000ccH
	cmp	ebp, esp
	call	__RTC_CheckEsp
	mov	esp, ebp
	pop	ebp
	ret	16					; 00000010H
??0ModelData@@QAE@PB_WPAHMPAUIDirect3DDevice9@@@Z ENDP	; ModelData::ModelData
_TEXT	ENDS
PUBLIC	??1ModelData@@QAE@XZ				; ModelData::~ModelData
EXTRN	??3@YAXPAX@Z:PROC				; operator delete
; Function compile flags: /Odtp /RTCsu /ZI
;	COMDAT ??1ModelData@@QAE@XZ
_TEXT	SEGMENT
$T77988 = -236						; size = 4
$T77989 = -224						; size = 4
_j0$77744 = -20						; size = 4
_this$ = -8						; size = 4
??1ModelData@@QAE@XZ PROC				; ModelData::~ModelData, COMDAT
; _this$ = ecx
; Line 21
	push	ebp
	mov	ebp, esp
	sub	esp, 240				; 000000f0H
	push	ebx
	push	esi
	push	edi
	push	ecx
	lea	edi, DWORD PTR [ebp-240]
	mov	ecx, 60					; 0000003cH
	mov	eax, -858993460				; ccccccccH
	rep stosd
	pop	ecx
	mov	DWORD PTR _this$[ebp], ecx
; Line 23
	mov	eax, DWORD PTR _this$[ebp]
	cmp	DWORD PTR [eax+4], 0
	je	SHORT $LN8@ModelData@2
	mov	eax, DWORD PTR _this$[ebp]
	mov	ecx, DWORD PTR [eax+4]
	mov	DWORD PTR $T77988[ebp], ecx
	mov	edx, DWORD PTR $T77988[ebp]
	push	edx
	call	??3@YAXPAX@Z				; operator delete
	add	esp, 4
	mov	eax, DWORD PTR _this$[ebp]
	mov	DWORD PTR [eax+4], 0
$LN8@ModelData@2:
; Line 26
	mov	eax, DWORD PTR _this$[ebp]
	cmp	DWORD PTR [eax+8], 0
	je	$LN7@ModelData@2
; Line 28
	mov	DWORD PTR _j0$77744[ebp], 0
	jmp	SHORT $LN6@ModelData@2
$LN5@ModelData@2:
	mov	eax, DWORD PTR _j0$77744[ebp]
	add	eax, 1
	mov	DWORD PTR _j0$77744[ebp], eax
$LN6@ModelData@2:
	mov	eax, DWORD PTR _this$[ebp]
	mov	ecx, DWORD PTR _j0$77744[ebp]
	cmp	ecx, DWORD PTR [eax+12]
	jae	SHORT $LN4@ModelData@2
	mov	eax, DWORD PTR _this$[ebp]
	mov	ecx, DWORD PTR [eax+8]
	mov	edx, DWORD PTR _j0$77744[ebp]
	cmp	DWORD PTR [ecx+edx*4], 0
	je	SHORT $LN3@ModelData@2
	mov	eax, DWORD PTR _this$[ebp]
	mov	ecx, DWORD PTR [eax+8]
	mov	edx, DWORD PTR _j0$77744[ebp]
	mov	eax, DWORD PTR [ecx+edx*4]
	mov	ecx, DWORD PTR _this$[ebp]
	mov	edx, DWORD PTR [ecx+8]
	mov	ecx, DWORD PTR _j0$77744[ebp]
	mov	edx, DWORD PTR [edx+ecx*4]
	mov	eax, DWORD PTR [eax]
	mov	esi, esp
	push	edx
	mov	ecx, DWORD PTR [eax+8]
	call	ecx
	cmp	esi, esp
	call	__RTC_CheckEsp
	mov	eax, DWORD PTR _this$[ebp]
	mov	ecx, DWORD PTR [eax+8]
	mov	edx, DWORD PTR _j0$77744[ebp]
	mov	DWORD PTR [ecx+edx*4], 0
$LN3@ModelData@2:
	jmp	SHORT $LN5@ModelData@2
$LN4@ModelData@2:
; Line 29
	mov	eax, DWORD PTR _this$[ebp]
	cmp	DWORD PTR [eax+8], 0
	je	SHORT $LN7@ModelData@2
	mov	eax, DWORD PTR _this$[ebp]
	mov	ecx, DWORD PTR [eax+8]
	mov	DWORD PTR $T77989[ebp], ecx
	mov	edx, DWORD PTR $T77989[ebp]
	push	edx
	call	??3@YAXPAX@Z				; operator delete
	add	esp, 4
	mov	eax, DWORD PTR _this$[ebp]
	mov	DWORD PTR [eax+8], 0
$LN7@ModelData@2:
; Line 33
	mov	eax, DWORD PTR _this$[ebp]
	cmp	DWORD PTR [eax], 0
	je	SHORT $LN9@ModelData@2
	mov	eax, DWORD PTR _this$[ebp]
	mov	ecx, DWORD PTR [eax]
	mov	edx, DWORD PTR _this$[ebp]
	mov	eax, DWORD PTR [edx]
	mov	ecx, DWORD PTR [ecx]
	mov	esi, esp
	push	eax
	mov	edx, DWORD PTR [ecx+8]
	call	edx
	cmp	esi, esp
	call	__RTC_CheckEsp
	mov	eax, DWORD PTR _this$[ebp]
	mov	DWORD PTR [eax], 0
$LN9@ModelData@2:
; Line 34
	pop	edi
	pop	esi
	pop	ebx
	add	esp, 240				; 000000f0H
	cmp	ebp, esp
	call	__RTC_CheckEsp
	mov	esp, ebp
	pop	ebp
	ret	0
??1ModelData@@QAE@XZ ENDP				; ModelData::~ModelData
_TEXT	ENDS
PUBLIC	??_C@_1FA@NDIGLFBK@?$AAX0?U0?$KB0?$KE0?k0?$AO?$AA?$CF?$AAs0?$AP0gc?$AH?$FL?$JK0U0?$IM0_0?F0?$KP0?$LJ0?A0?c0?$NO0?C0?W0?U0?$KB0?$KE0?k0L?$IJ?$IL0d0K0?$IK@ ; `string'
PUBLIC	?LoadTexture@ModelData@@AAEJPADPAPAUIDirect3DTexture9@@PAUIDirect3DDevice9@@@Z ; ModelData::LoadTexture
PUBLIC	??_C@_1DA@GMIFNOFA@?$AAn?$AAp?$AAc?$AAa?$AA?5?$AA3?$AAD?$AA?5?$AAM?$AAo?$AAn?$AAi?$AAt?$AAo?$AAr?$AA?5?$AAP?$AAr?$AAo?$AAj?$AAe?$AAc?$AAt?$AA?$AA@ ; `string'
PUBLIC	??_C@_1CM@JHGLNDMI@?$AAX0?U0?$KB0?$KE0?k0?$AO?$AA?$CF?$AAs0?$AP0L?$IJ?$IL0d0K0?$IK0?$HO0?$FL0?$JD0g0W0_0?$AC?$AA?$AA@ ; `string'
PUBLIC	__$ArrayPad$
EXTRN	__imp__lstrlenA@4:PROC
EXTRN	??2@YAPAXI@Z:PROC				; operator new
EXTRN	__imp__MessageBoxW@16:PROC
EXTRN	__imp__wsprintfW:PROC
EXTRN	_D3DXLoadMeshFromXW@32:PROC
EXTRN	___security_cookie:DWORD
EXTRN	@__security_check_cookie@4:PROC
EXTRN	@_RTC_CheckStackVars@8:PROC
;	COMDAT ??_C@_1FA@NDIGLFBK@?$AAX0?U0?$KB0?$KE0?k0?$AO?$AA?$CF?$AAs0?$AP0gc?$AH?$FL?$JK0U0?$IM0_0?F0?$KP0?$LJ0?A0?c0?$NO0?C0?W0?U0?$KB0?$KE0?k0L?$IJ?$IL0d0K0?$IK@
CONST	SEGMENT
??_C@_1FA@NDIGLFBK@?$AAX0?U0?$KB0?$KE0?k0?$AO?$AA?$CF?$AAs0?$AP0gc?$AH?$FL?$JK0U0?$IM0_0?F0?$KP0?$LJ0?A0?c0?$NO0?C0?W0?U0?$KB0?$KE0?k0L?$IJ?$IL0d0K0?$IK@ DB 'X'
	DB	00H, 0d5H, '0', 0a1H, '0', 0a4H, '0', 0ebH, '0', 0eH, '0%', 00H
	DB	's', 00H, 0fH, '0g0', 07H, 'c', 09aH, '[U0', 08cH, '0_0', 0c6H
	DB	'0', 0afH, '0', 0b9H, '0', 0c1H, '0', 0e3H, '0', 0deH, '0', 0c3H
	DB	'0', 0d7H, '0', 0d5H, '0', 0a1H, '0', 0a4H, '0', 0ebH, '0L0', 08bH
	DB	089H, 'd0K0', 08aH, '0~0[0', 093H, '0g0W0_0', 02H, '0', 00H, 00H ; `string'
CONST	ENDS
;	COMDAT ??_C@_1DA@GMIFNOFA@?$AAn?$AAp?$AAc?$AAa?$AA?5?$AA3?$AAD?$AA?5?$AAM?$AAo?$AAn?$AAi?$AAt?$AAo?$AAr?$AA?5?$AAP?$AAr?$AAo?$AAj?$AAe?$AAc?$AAt?$AA?$AA@
CONST	SEGMENT
??_C@_1DA@GMIFNOFA@?$AAn?$AAp?$AAc?$AAa?$AA?5?$AA3?$AAD?$AA?5?$AAM?$AAo?$AAn?$AAi?$AAt?$AAo?$AAr?$AA?5?$AAP?$AAr?$AAo?$AAj?$AAe?$AAc?$AAt?$AA?$AA@ DB 'n'
	DB	00H, 'p', 00H, 'c', 00H, 'a', 00H, ' ', 00H, '3', 00H, 'D', 00H
	DB	' ', 00H, 'M', 00H, 'o', 00H, 'n', 00H, 'i', 00H, 't', 00H, 'o'
	DB	00H, 'r', 00H, ' ', 00H, 'P', 00H, 'r', 00H, 'o', 00H, 'j', 00H
	DB	'e', 00H, 'c', 00H, 't', 00H, 00H, 00H	; `string'
CONST	ENDS
;	COMDAT ??_C@_1CM@JHGLNDMI@?$AAX0?U0?$KB0?$KE0?k0?$AO?$AA?$CF?$AAs0?$AP0L?$IJ?$IL0d0K0?$IK0?$HO0?$FL0?$JD0g0W0_0?$AC?$AA?$AA@
CONST	SEGMENT
??_C@_1CM@JHGLNDMI@?$AAX0?U0?$KB0?$KE0?k0?$AO?$AA?$CF?$AAs0?$AP0L?$IJ?$IL0d0K0?$IK0?$HO0?$FL0?$JD0g0W0_0?$AC?$AA?$AA@ DB 'X'
	DB	00H, 0d5H, '0', 0a1H, '0', 0a4H, '0', 0ebH, '0', 0eH, '0%', 00H
	DB	's', 00H, 0fH, '0L0', 08bH, 089H, 'd0K0', 08aH, '0~0[0', 093H, '0'
	DB	'g0W0_0', 02H, '0', 00H, 00H			; `string'
; Function compile flags: /Odtp /RTCsu /ZI
CONST	ENDS
;	COMDAT ?LoadFromXFileModel@ModelData@@AAEJPB_WPAUIDirect3DDevice9@@@Z
_TEXT	SEGMENT
$T77993 = -2328						; size = 4
$T77994 = -2316						; size = 4
_caution_string$77779 = -2112				; size = 1024
_i0$77772 = -1080					; size = 4
_d3dx_materials$ = -1068				; size = 4
_caution_string$77760 = -1056				; size = 1024
_pD3DXMtrlBuffer$ = -24					; size = 4
_this$ = -12						; size = 4
__$ArrayPad$ = -4					; size = 4
_file_name$ = 8						; size = 4
_d3d_device$ = 12					; size = 4
?LoadFromXFileModel@ModelData@@AAEJPB_WPAUIDirect3DDevice9@@@Z PROC ; ModelData::LoadFromXFileModel, COMDAT
; _this$ = ecx
; Line 38
	push	ebp
	mov	ebp, esp
	sub	esp, 2332				; 0000091cH
	push	ebx
	push	esi
	push	edi
	push	ecx
	lea	edi, DWORD PTR [ebp-2332]
	mov	ecx, 583				; 00000247H
	mov	eax, -858993460				; ccccccccH
	rep stosd
	pop	ecx
	mov	eax, DWORD PTR ___security_cookie
	xor	eax, ebp
	mov	DWORD PTR __$ArrayPad$[ebp], eax
	mov	DWORD PTR _this$[ebp], ecx
; Line 43
	mov	eax, DWORD PTR _this$[ebp]
	push	eax
	mov	ecx, DWORD PTR _this$[ebp]
	add	ecx, 12					; 0000000cH
	push	ecx
	push	0
	lea	edx, DWORD PTR _pD3DXMtrlBuffer$[ebp]
	push	edx
	push	0
	mov	eax, DWORD PTR _d3d_device$[ebp]
	push	eax
	push	272					; 00000110H
	mov	ecx, DWORD PTR _file_name$[ebp]
	push	ecx
	call	_D3DXLoadMeshFromXW@32
	test	eax, eax
	jge	SHORT $LN6@LoadFromXF
; Line 45
	mov	esi, esp
	mov	eax, DWORD PTR _file_name$[ebp]
	push	eax
	push	OFFSET ??_C@_1CM@JHGLNDMI@?$AAX0?U0?$KB0?$KE0?k0?$AO?$AA?$CF?$AAs0?$AP0L?$IJ?$IL0d0K0?$IK0?$HO0?$FL0?$JD0g0W0_0?$AC?$AA?$AA@
	lea	ecx, DWORD PTR _caution_string$77760[ebp]
	push	ecx
	call	DWORD PTR __imp__wsprintfW
	add	esp, 12					; 0000000cH
	cmp	esi, esp
	call	__RTC_CheckEsp
; Line 46
	mov	esi, esp
	push	0
	push	OFFSET ??_C@_1DA@GMIFNOFA@?$AAn?$AAp?$AAc?$AAa?$AA?5?$AA3?$AAD?$AA?5?$AAM?$AAo?$AAn?$AAi?$AAt?$AAo?$AAr?$AA?5?$AAP?$AAr?$AAo?$AAj?$AAe?$AAc?$AAt?$AA?$AA@
	lea	eax, DWORD PTR _caution_string$77760[ebp]
	push	eax
	push	0
	call	DWORD PTR __imp__MessageBoxW@16
	cmp	esi, esp
	call	__RTC_CheckEsp
; Line 47
	mov	eax, -2147467259			; 80004005H
	jmp	$LN7@LoadFromXF
$LN6@LoadFromXF:
; Line 51
	mov	eax, DWORD PTR _pD3DXMtrlBuffer$[ebp]
	mov	ecx, DWORD PTR [eax]
	mov	esi, esp
	mov	edx, DWORD PTR _pD3DXMtrlBuffer$[ebp]
	push	edx
	mov	eax, DWORD PTR [ecx+12]
	call	eax
	cmp	esi, esp
	call	__RTC_CheckEsp
	mov	DWORD PTR _d3dx_materials$[ebp], eax
; Line 52
	xor	ecx, ecx
	mov	edx, DWORD PTR _this$[ebp]
	mov	eax, DWORD PTR [edx+12]
	mov	edx, 68					; 00000044H
	mul	edx
	seto	cl
	neg	ecx
	or	ecx, eax
	push	ecx
	call	??2@YAPAXI@Z				; operator new
	add	esp, 4
	mov	DWORD PTR $T77993[ebp], eax
	mov	eax, DWORD PTR _this$[ebp]
	mov	ecx, DWORD PTR $T77993[ebp]
	mov	DWORD PTR [eax+4], ecx
; Line 53
	xor	ecx, ecx
	mov	edx, DWORD PTR _this$[ebp]
	mov	eax, DWORD PTR [edx+12]
	mov	edx, 4
	mul	edx
	seto	cl
	neg	ecx
	or	ecx, eax
	push	ecx
	call	??2@YAPAXI@Z				; operator new
	add	esp, 4
	mov	DWORD PTR $T77994[ebp], eax
	mov	eax, DWORD PTR _this$[ebp]
	mov	ecx, DWORD PTR $T77994[ebp]
	mov	DWORD PTR [eax+8], ecx
; Line 55
	mov	DWORD PTR _i0$77772[ebp], 0
	jmp	SHORT $LN5@LoadFromXF
$LN4@LoadFromXF:
	mov	eax, DWORD PTR _i0$77772[ebp]
	add	eax, 1
	mov	DWORD PTR _i0$77772[ebp], eax
$LN5@LoadFromXF:
	mov	eax, DWORD PTR _this$[ebp]
	mov	ecx, DWORD PTR _i0$77772[ebp]
	cmp	ecx, DWORD PTR [eax+12]
	jae	$LN3@LoadFromXF
; Line 58
	mov	esi, DWORD PTR _i0$77772[ebp]
	imul	esi, 72					; 00000048H
	add	esi, DWORD PTR _d3dx_materials$[ebp]
	mov	eax, DWORD PTR _i0$77772[ebp]
	imul	eax, 68					; 00000044H
	mov	ecx, DWORD PTR _this$[ebp]
	mov	edi, DWORD PTR [ecx+4]
	add	edi, eax
	mov	ecx, 17					; 00000011H
	rep movsd
; Line 61
	mov	eax, DWORD PTR _i0$77772[ebp]
	imul	eax, 68					; 00000044H
	mov	ecx, DWORD PTR _this$[ebp]
	mov	edx, DWORD PTR [ecx+4]
	add	edx, eax
	mov	eax, DWORD PTR _i0$77772[ebp]
	imul	eax, 68					; 00000044H
	mov	ecx, DWORD PTR _this$[ebp]
	mov	ecx, DWORD PTR [ecx+4]
	lea	eax, DWORD PTR [ecx+eax+16]
	mov	ecx, DWORD PTR [edx]
	mov	DWORD PTR [eax], ecx
	mov	ecx, DWORD PTR [edx+4]
	mov	DWORD PTR [eax+4], ecx
	mov	ecx, DWORD PTR [edx+8]
	mov	DWORD PTR [eax+8], ecx
	mov	edx, DWORD PTR [edx+12]
	mov	DWORD PTR [eax+12], edx
; Line 63
	mov	eax, DWORD PTR _this$[ebp]
	mov	ecx, DWORD PTR [eax+8]
	mov	edx, DWORD PTR _i0$77772[ebp]
	mov	DWORD PTR [ecx+edx*4], 0
; Line 64
	mov	eax, DWORD PTR _i0$77772[ebp]
	imul	eax, 72					; 00000048H
	mov	ecx, DWORD PTR _d3dx_materials$[ebp]
	cmp	DWORD PTR [ecx+eax+68], 0
	je	$LN2@LoadFromXF
	mov	eax, DWORD PTR _i0$77772[ebp]
	imul	eax, 72					; 00000048H
	mov	esi, esp
	mov	ecx, DWORD PTR _d3dx_materials$[ebp]
	mov	edx, DWORD PTR [ecx+eax+68]
	push	edx
	call	DWORD PTR __imp__lstrlenA@4
	cmp	esi, esp
	call	__RTC_CheckEsp
	test	eax, eax
	jle	SHORT $LN2@LoadFromXF
; Line 66
	mov	eax, DWORD PTR _d3d_device$[ebp]
	push	eax
	mov	ecx, DWORD PTR _this$[ebp]
	mov	edx, DWORD PTR [ecx+8]
	mov	eax, DWORD PTR _i0$77772[ebp]
	lea	ecx, DWORD PTR [edx+eax*4]
	push	ecx
	mov	edx, DWORD PTR _i0$77772[ebp]
	imul	edx, 72					; 00000048H
	mov	eax, DWORD PTR _d3dx_materials$[ebp]
	mov	ecx, DWORD PTR [eax+edx+68]
	push	ecx
	mov	ecx, DWORD PTR _this$[ebp]
	call	?LoadTexture@ModelData@@AAEJPADPAPAUIDirect3DTexture9@@PAUIDirect3DDevice9@@@Z ; ModelData::LoadTexture
	test	eax, eax
	jge	SHORT $LN2@LoadFromXF
; Line 70
	mov	esi, esp
	mov	eax, DWORD PTR _file_name$[ebp]
	push	eax
	push	OFFSET ??_C@_1FA@NDIGLFBK@?$AAX0?U0?$KB0?$KE0?k0?$AO?$AA?$CF?$AAs0?$AP0gc?$AH?$FL?$JK0U0?$IM0_0?F0?$KP0?$LJ0?A0?c0?$NO0?C0?W0?U0?$KB0?$KE0?k0L?$IJ?$IL0d0K0?$IK@
	lea	ecx, DWORD PTR _caution_string$77779[ebp]
	push	ecx
	call	DWORD PTR __imp__wsprintfW
	add	esp, 12					; 0000000cH
	cmp	esi, esp
	call	__RTC_CheckEsp
; Line 71
	mov	esi, esp
	push	0
	push	OFFSET ??_C@_1DA@GMIFNOFA@?$AAn?$AAp?$AAc?$AAa?$AA?5?$AA3?$AAD?$AA?5?$AAM?$AAo?$AAn?$AAi?$AAt?$AAo?$AAr?$AA?5?$AAP?$AAr?$AAo?$AAj?$AAe?$AAc?$AAt?$AA?$AA@
	lea	eax, DWORD PTR _caution_string$77779[ebp]
	push	eax
	push	0
	call	DWORD PTR __imp__MessageBoxW@16
	cmp	esi, esp
	call	__RTC_CheckEsp
; Line 72
	mov	eax, -2147467259			; 80004005H
	jmp	SHORT $LN7@LoadFromXF
$LN2@LoadFromXF:
; Line 75
	jmp	$LN4@LoadFromXF
$LN3@LoadFromXF:
; Line 78
	mov	eax, DWORD PTR _pD3DXMtrlBuffer$[ebp]
	mov	ecx, DWORD PTR [eax]
	mov	esi, esp
	mov	edx, DWORD PTR _pD3DXMtrlBuffer$[ebp]
	push	edx
	mov	eax, DWORD PTR [ecx+8]
	call	eax
	cmp	esi, esp
	call	__RTC_CheckEsp
; Line 80
	xor	eax, eax
$LN7@LoadFromXF:
; Line 81
	push	edx
	mov	ecx, ebp
	push	eax
	lea	edx, DWORD PTR $LN13@LoadFromXF
	call	@_RTC_CheckStackVars@8
	pop	eax
	pop	edx
	pop	edi
	pop	esi
	pop	ebx
	mov	ecx, DWORD PTR __$ArrayPad$[ebp]
	xor	ecx, ebp
	call	@__security_check_cookie@4
	add	esp, 2332				; 0000091cH
	cmp	ebp, esp
	call	__RTC_CheckEsp
	mov	esp, ebp
	pop	ebp
	ret	8
	npad	3
$LN13@LoadFromXF:
	DD	3
	DD	$LN12@LoadFromXF
$LN12@LoadFromXF:
	DD	-24					; ffffffe8H
	DD	4
	DD	$LN9@LoadFromXF
	DD	-1056					; fffffbe0H
	DD	1024					; 00000400H
	DD	$LN10@LoadFromXF
	DD	-2112					; fffff7c0H
	DD	1024					; 00000400H
	DD	$LN11@LoadFromXF
$LN11@LoadFromXF:
	DB	99					; 00000063H
	DB	97					; 00000061H
	DB	117					; 00000075H
	DB	116					; 00000074H
	DB	105					; 00000069H
	DB	111					; 0000006fH
	DB	110					; 0000006eH
	DB	95					; 0000005fH
	DB	115					; 00000073H
	DB	116					; 00000074H
	DB	114					; 00000072H
	DB	105					; 00000069H
	DB	110					; 0000006eH
	DB	103					; 00000067H
	DB	0
$LN10@LoadFromXF:
	DB	99					; 00000063H
	DB	97					; 00000061H
	DB	117					; 00000075H
	DB	116					; 00000074H
	DB	105					; 00000069H
	DB	111					; 0000006fH
	DB	110					; 0000006eH
	DB	95					; 0000005fH
	DB	115					; 00000073H
	DB	116					; 00000074H
	DB	114					; 00000072H
	DB	105					; 00000069H
	DB	110					; 0000006eH
	DB	103					; 00000067H
	DB	0
$LN9@LoadFromXF:
	DB	112					; 00000070H
	DB	68					; 00000044H
	DB	51					; 00000033H
	DB	68					; 00000044H
	DB	88					; 00000058H
	DB	77					; 0000004dH
	DB	116					; 00000074H
	DB	114					; 00000072H
	DB	108					; 0000006cH
	DB	66					; 00000042H
	DB	117					; 00000075H
	DB	102					; 00000066H
	DB	102					; 00000066H
	DB	101					; 00000065H
	DB	114					; 00000072H
	DB	0
?LoadFromXFileModel@ModelData@@AAEJPB_WPAUIDirect3DDevice9@@@Z ENDP ; ModelData::LoadFromXFileModel
_TEXT	ENDS
PUBLIC	__$ArrayPad$
EXTRN	_D3DXCreateTextureFromFileW@12:PROC
EXTRN	__imp__MultiByteToWideChar@24:PROC
; Function compile flags: /Odtp /RTCsu /ZI
;	COMDAT ?LoadTexture@ModelData@@AAEJPADPAPAUIDirect3DTexture9@@PAUIDirect3DDevice9@@@Z
_TEXT	SEGMENT
_tmp_name$ = -532					; size = 510
_this$ = -12						; size = 4
__$ArrayPad$ = -4					; size = 4
_file_name$ = 8						; size = 4
_texture$ = 12						; size = 4
_d3d_device$ = 16					; size = 4
?LoadTexture@ModelData@@AAEJPADPAPAUIDirect3DTexture9@@PAUIDirect3DDevice9@@@Z PROC ; ModelData::LoadTexture, COMDAT
; _this$ = ecx
; Line 85
	push	ebp
	mov	ebp, esp
	sub	esp, 728				; 000002d8H
	push	ebx
	push	esi
	push	edi
	push	ecx
	lea	edi, DWORD PTR [ebp-728]
	mov	ecx, 182				; 000000b6H
	mov	eax, -858993460				; ccccccccH
	rep stosd
	pop	ecx
	mov	eax, DWORD PTR ___security_cookie
	xor	eax, ebp
	mov	DWORD PTR __$ArrayPad$[ebp], eax
	mov	DWORD PTR _this$[ebp], ecx
; Line 88
	mov	esi, esp
	push	254					; 000000feH
	lea	eax, DWORD PTR _tmp_name$[ebp]
	push	eax
	push	-1
	mov	ecx, DWORD PTR _file_name$[ebp]
	push	ecx
	push	0
	push	0
	call	DWORD PTR __imp__MultiByteToWideChar@24
	cmp	esi, esp
	call	__RTC_CheckEsp
	test	eax, eax
	jne	SHORT $LN2@LoadTextur
; Line 90
	mov	eax, -2147467259			; 80004005H
	jmp	SHORT $LN3@LoadTextur
$LN2@LoadTextur:
; Line 96
	mov	eax, DWORD PTR _texture$[ebp]
	push	eax
	lea	ecx, DWORD PTR _tmp_name$[ebp]
	push	ecx
	mov	edx, DWORD PTR _d3d_device$[ebp]
	push	edx
	call	_D3DXCreateTextureFromFileW@12
	test	eax, eax
	jge	SHORT $LN1@LoadTextur
; Line 98
	mov	eax, -2147467259			; 80004005H
	jmp	SHORT $LN3@LoadTextur
$LN1@LoadTextur:
; Line 101
	xor	eax, eax
$LN3@LoadTextur:
; Line 102
	push	edx
	mov	ecx, ebp
	push	eax
	lea	edx, DWORD PTR $LN7@LoadTextur
	call	@_RTC_CheckStackVars@8
	pop	eax
	pop	edx
	pop	edi
	pop	esi
	pop	ebx
	mov	ecx, DWORD PTR __$ArrayPad$[ebp]
	xor	ecx, ebp
	call	@__security_check_cookie@4
	add	esp, 728				; 000002d8H
	cmp	ebp, esp
	call	__RTC_CheckEsp
	mov	esp, ebp
	pop	ebp
	ret	12					; 0000000cH
	npad	1
$LN7@LoadTextur:
	DD	1
	DD	$LN6@LoadTextur
$LN6@LoadTextur:
	DD	-532					; fffffdecH
	DD	510					; 000001feH
	DD	$LN5@LoadTextur
$LN5@LoadTextur:
	DB	116					; 00000074H
	DB	109					; 0000006dH
	DB	112					; 00000070H
	DB	95					; 0000005fH
	DB	110					; 0000006eH
	DB	97					; 00000061H
	DB	109					; 0000006dH
	DB	101					; 00000065H
	DB	0
?LoadTexture@ModelData@@AAEJPADPAPAUIDirect3DTexture9@@PAUIDirect3DDevice9@@@Z ENDP ; ModelData::LoadTexture
; Function compile flags: /Odtp /RTCsu /ZI
_TEXT	ENDS
;	COMDAT ?InitModel@ModelData@@AAEXXZ
_TEXT	SEGMENT
_this$ = -8						; size = 4
?InitModel@ModelData@@AAEXXZ PROC			; ModelData::InitModel, COMDAT
; _this$ = ecx
; Line 106
	push	ebp
	mov	ebp, esp
	sub	esp, 204				; 000000ccH
	push	ebx
	push	esi
	push	edi
	push	ecx
	lea	edi, DWORD PTR [ebp-204]
	mov	ecx, 51					; 00000033H
	mov	eax, -858993460				; ccccccccH
	rep stosd
	pop	ecx
	mov	DWORD PTR _this$[ebp], ecx
; Line 107
	mov	eax, DWORD PTR _this$[ebp]
	mov	DWORD PTR [eax], 0
; Line 108
	mov	eax, DWORD PTR _this$[ebp]
	mov	DWORD PTR [eax+4], 0
; Line 109
	mov	eax, DWORD PTR _this$[ebp]
	mov	DWORD PTR [eax+8], 0
; Line 110
	mov	eax, DWORD PTR _this$[ebp]
	mov	DWORD PTR [eax+12], 0
; Line 111
	pop	edi
	pop	esi
	pop	ebx
	mov	esp, ebp
	pop	ebp
	ret	0
?InitModel@ModelData@@AAEXXZ ENDP			; ModelData::InitModel
_TEXT	ENDS
PUBLIC	?RenderModel@ModelData@@QAEXPAUIDirect3DDevice9@@@Z ; ModelData::RenderModel
; Function compile flags: /Odtp /RTCsu /ZI
;	COMDAT ?RenderModel@ModelData@@QAEXPAUIDirect3DDevice9@@@Z
_TEXT	SEGMENT
_i$77806 = -20						; size = 4
_this$ = -8						; size = 4
_D3DDevice$ = 8						; size = 4
?RenderModel@ModelData@@QAEXPAUIDirect3DDevice9@@@Z PROC ; ModelData::RenderModel, COMDAT
; _this$ = ecx
; Line 115
	push	ebp
	mov	ebp, esp
	sub	esp, 216				; 000000d8H
	push	ebx
	push	esi
	push	edi
	push	ecx
	lea	edi, DWORD PTR [ebp-216]
	mov	ecx, 54					; 00000036H
	mov	eax, -858993460				; ccccccccH
	rep stosd
	pop	ecx
	mov	DWORD PTR _this$[ebp], ecx
; Line 117
	mov	DWORD PTR _i$77806[ebp], 0
	jmp	SHORT $LN3@RenderMode
$LN2@RenderMode:
	mov	eax, DWORD PTR _i$77806[ebp]
	add	eax, 1
	mov	DWORD PTR _i$77806[ebp], eax
$LN3@RenderMode:
	mov	eax, DWORD PTR _this$[ebp]
	mov	ecx, DWORD PTR _i$77806[ebp]
	cmp	ecx, DWORD PTR [eax+12]
	jae	SHORT $LN4@RenderMode
; Line 120
	mov	eax, DWORD PTR _i$77806[ebp]
	imul	eax, 68					; 00000044H
	mov	ecx, DWORD PTR _this$[ebp]
	add	eax, DWORD PTR [ecx+4]
	mov	esi, esp
	push	eax
	mov	edx, DWORD PTR _D3DDevice$[ebp]
	mov	eax, DWORD PTR [edx]
	mov	ecx, DWORD PTR _D3DDevice$[ebp]
	push	ecx
	mov	edx, DWORD PTR [eax+196]
	call	edx
	cmp	esi, esp
	call	__RTC_CheckEsp
; Line 121
	mov	eax, DWORD PTR _this$[ebp]
	mov	ecx, DWORD PTR [eax+8]
	mov	esi, esp
	mov	edx, DWORD PTR _i$77806[ebp]
	mov	eax, DWORD PTR [ecx+edx*4]
	push	eax
	push	0
	mov	ecx, DWORD PTR _D3DDevice$[ebp]
	mov	edx, DWORD PTR [ecx]
	mov	eax, DWORD PTR _D3DDevice$[ebp]
	push	eax
	mov	ecx, DWORD PTR [edx+260]
	call	ecx
	cmp	esi, esp
	call	__RTC_CheckEsp
; Line 124
	mov	esi, esp
	mov	eax, DWORD PTR _i$77806[ebp]
	push	eax
	mov	ecx, DWORD PTR _this$[ebp]
	mov	edx, DWORD PTR [ecx]
	mov	eax, DWORD PTR _this$[ebp]
	mov	ecx, DWORD PTR [eax]
	mov	edx, DWORD PTR [edx]
	push	ecx
	mov	eax, DWORD PTR [edx+12]
	call	eax
	cmp	esi, esp
	call	__RTC_CheckEsp
; Line 125
	jmp	$LN2@RenderMode
$LN4@RenderMode:
; Line 126
	pop	edi
	pop	esi
	pop	ebx
	add	esp, 216				; 000000d8H
	cmp	ebp, esp
	call	__RTC_CheckEsp
	mov	esp, ebp
	pop	ebp
	ret	4
?RenderModel@ModelData@@QAEXPAUIDirect3DDevice9@@@Z ENDP ; ModelData::RenderModel
_TEXT	ENDS
PUBLIC	?get_scale_@ModelData@@QAEMXZ			; ModelData::get_scale_
; Function compile flags: /Odtp /RTCsu /ZI
;	COMDAT ?get_scale_@ModelData@@QAEMXZ
_TEXT	SEGMENT
_this$ = -8						; size = 4
?get_scale_@ModelData@@QAEMXZ PROC			; ModelData::get_scale_, COMDAT
; _this$ = ecx
; Line 130
	push	ebp
	mov	ebp, esp
	sub	esp, 204				; 000000ccH
	push	ebx
	push	esi
	push	edi
	push	ecx
	lea	edi, DWORD PTR [ebp-204]
	mov	ecx, 51					; 00000033H
	mov	eax, -858993460				; ccccccccH
	rep stosd
	pop	ecx
	mov	DWORD PTR _this$[ebp], ecx
; Line 131
	mov	eax, DWORD PTR _this$[ebp]
	fld	DWORD PTR [eax+16]
; Line 132
	pop	edi
	pop	esi
	pop	ebx
	mov	esp, ebp
	pop	ebp
	ret	0
?get_scale_@ModelData@@QAEMXZ ENDP			; ModelData::get_scale_
_TEXT	ENDS
END
