; Listing generated by Microsoft (R) Optimizing Compiler Version 16.00.30319.01 

	TITLE	C:\Users\naoya\Documents\Visual Studio 2010\npca.jp\3Dモニター制作\3DMonitor-Direct2D\3DMonitor\program_engine.cpp
	.686P
	.XMM
	include listing.inc
	.model	flat

INCLUDELIB MSVCRTD
INCLUDELIB OLDNAMES

PUBLIC	??0ProgramEngine@@QAE@PAVDXEngine@@PAJ@Z	; ProgramEngine::ProgramEngine
EXTRN	??0GraphicsEngine@@QAE@PAVDXEngine@@PAJ@Z:PROC	; GraphicsEngine::GraphicsEngine
EXTRN	??2@YAPAXI@Z:PROC				; operator new
EXTRN	__RTC_CheckEsp:PROC
EXTRN	__RTC_Shutdown:PROC
EXTRN	__RTC_InitBase:PROC
;	COMDAT rtc$TMZ
; File c:\users\naoya\documents\visual studio 2010\npca.jp\3dモニター制作\3dmonitor-direct2d\3dmonitor\program_engine.cpp
rtc$TMZ	SEGMENT
__RTC_Shutdown.rtc$TMZ DD FLAT:__RTC_Shutdown
rtc$TMZ	ENDS
;	COMDAT rtc$IMZ
rtc$IMZ	SEGMENT
__RTC_InitBase.rtc$IMZ DD FLAT:__RTC_InitBase
; Function compile flags: /Odtp /RTCsu /ZI
rtc$IMZ	ENDS
;	COMDAT ??0ProgramEngine@@QAE@PAVDXEngine@@PAJ@Z
_TEXT	SEGMENT
tv75 = -220						; size = 4
$T77204 = -212						; size = 4
_this$ = -8						; size = 4
_tmp_dx$ = 8						; size = 4
_result$ = 12						; size = 4
??0ProgramEngine@@QAE@PAVDXEngine@@PAJ@Z PROC		; ProgramEngine::ProgramEngine, COMDAT
; _this$ = ecx
; Line 12
	push	ebp
	mov	ebp, esp
	sub	esp, 220				; 000000dcH
	push	ebx
	push	esi
	push	edi
	push	ecx
	lea	edi, DWORD PTR [ebp-220]
	mov	ecx, 55					; 00000037H
	mov	eax, -858993460				; ccccccccH
	rep stosd
	pop	ecx
	mov	DWORD PTR _this$[ebp], ecx
; Line 13
	mov	eax, DWORD PTR _this$[ebp]
	mov	DWORD PTR [eax+8], 0
; Line 14
	mov	eax, DWORD PTR _this$[ebp]
	mov	ecx, DWORD PTR _tmp_dx$[ebp]
	mov	DWORD PTR [eax+4], ecx
; Line 15
	mov	eax, DWORD PTR _this$[ebp]
	mov	DWORD PTR [eax], 1
; Line 16
	push	52					; 00000034H
	call	??2@YAPAXI@Z				; operator new
	add	esp, 4
	mov	DWORD PTR $T77204[ebp], eax
	cmp	DWORD PTR $T77204[ebp], 0
	je	SHORT $LN3@ProgramEng
	mov	eax, DWORD PTR _result$[ebp]
	push	eax
	mov	ecx, DWORD PTR _this$[ebp]
	mov	edx, DWORD PTR [ecx+4]
	push	edx
	mov	ecx, DWORD PTR $T77204[ebp]
	call	??0GraphicsEngine@@QAE@PAVDXEngine@@PAJ@Z ; GraphicsEngine::GraphicsEngine
	mov	DWORD PTR tv75[ebp], eax
	jmp	SHORT $LN4@ProgramEng
$LN3@ProgramEng:
	mov	DWORD PTR tv75[ebp], 0
$LN4@ProgramEng:
	mov	eax, DWORD PTR _this$[ebp]
	mov	ecx, DWORD PTR tv75[ebp]
	mov	DWORD PTR [eax+8], ecx
; Line 20
	mov	eax, DWORD PTR _this$[ebp]
	pop	edi
	pop	esi
	pop	ebx
	add	esp, 220				; 000000dcH
	cmp	ebp, esp
	call	__RTC_CheckEsp
	mov	esp, ebp
	pop	ebp
	ret	8
??0ProgramEngine@@QAE@PAVDXEngine@@PAJ@Z ENDP		; ProgramEngine::ProgramEngine
_TEXT	ENDS
PUBLIC	??_GGraphicsEngine@@QAEPAXI@Z			; GraphicsEngine::`scalar deleting destructor'
PUBLIC	??1ProgramEngine@@QAE@XZ			; ProgramEngine::~ProgramEngine
; Function compile flags: /Odtp /RTCsu /ZI
;	COMDAT ??1ProgramEngine@@QAE@XZ
_TEXT	SEGMENT
tv71 = -232						; size = 4
$T77218 = -224						; size = 4
$T77219 = -212						; size = 4
_this$ = -8						; size = 4
??1ProgramEngine@@QAE@XZ PROC				; ProgramEngine::~ProgramEngine, COMDAT
; _this$ = ecx
; Line 24
	push	ebp
	mov	ebp, esp
	sub	esp, 232				; 000000e8H
	push	ebx
	push	esi
	push	edi
	push	ecx
	lea	edi, DWORD PTR [ebp-232]
	mov	ecx, 58					; 0000003aH
	mov	eax, -858993460				; ccccccccH
	rep stosd
	pop	ecx
	mov	DWORD PTR _this$[ebp], ecx
; Line 25
	mov	eax, DWORD PTR _this$[ebp]
	cmp	DWORD PTR [eax+8], 0
	je	SHORT $LN2@ProgramEng@2
	mov	eax, DWORD PTR _this$[ebp]
	mov	ecx, DWORD PTR [eax+8]
	mov	DWORD PTR $T77219[ebp], ecx
	mov	edx, DWORD PTR $T77219[ebp]
	mov	DWORD PTR $T77218[ebp], edx
	cmp	DWORD PTR $T77218[ebp], 0
	je	SHORT $LN4@ProgramEng@2
	push	1
	mov	ecx, DWORD PTR $T77218[ebp]
	call	??_GGraphicsEngine@@QAEPAXI@Z
	mov	DWORD PTR tv71[ebp], eax
	jmp	SHORT $LN5@ProgramEng@2
$LN4@ProgramEng@2:
	mov	DWORD PTR tv71[ebp], 0
$LN5@ProgramEng@2:
	mov	eax, DWORD PTR _this$[ebp]
	mov	DWORD PTR [eax+8], 0
$LN2@ProgramEng@2:
; Line 26
	pop	edi
	pop	esi
	pop	ebx
	add	esp, 232				; 000000e8H
	cmp	ebp, esp
	call	__RTC_CheckEsp
	mov	esp, ebp
	pop	ebp
	ret	0
??1ProgramEngine@@QAE@XZ ENDP				; ProgramEngine::~ProgramEngine
_TEXT	ENDS
EXTRN	??3@YAXPAX@Z:PROC				; operator delete
EXTRN	??1GraphicsEngine@@QAE@XZ:PROC			; GraphicsEngine::~GraphicsEngine
; Function compile flags: /Odtp /RTCsu /ZI
;	COMDAT ??_GGraphicsEngine@@QAEPAXI@Z
_TEXT	SEGMENT
_this$ = -8						; size = 4
___flags$ = 8						; size = 4
??_GGraphicsEngine@@QAEPAXI@Z PROC			; GraphicsEngine::`scalar deleting destructor', COMDAT
; _this$ = ecx
	push	ebp
	mov	ebp, esp
	sub	esp, 204				; 000000ccH
	push	ebx
	push	esi
	push	edi
	push	ecx
	lea	edi, DWORD PTR [ebp-204]
	mov	ecx, 51					; 00000033H
	mov	eax, -858993460				; ccccccccH
	rep stosd
	pop	ecx
	mov	DWORD PTR _this$[ebp], ecx
	mov	ecx, DWORD PTR _this$[ebp]
	call	??1GraphicsEngine@@QAE@XZ		; GraphicsEngine::~GraphicsEngine
	mov	eax, DWORD PTR ___flags$[ebp]
	and	eax, 1
	je	SHORT $LN1@scalar
	mov	eax, DWORD PTR _this$[ebp]
	push	eax
	call	??3@YAXPAX@Z				; operator delete
	add	esp, 4
$LN1@scalar:
	mov	eax, DWORD PTR _this$[ebp]
	pop	edi
	pop	esi
	pop	ebx
	add	esp, 204				; 000000ccH
	cmp	ebp, esp
	call	__RTC_CheckEsp
	mov	esp, ebp
	pop	ebp
	ret	4
??_GGraphicsEngine@@QAEPAXI@Z ENDP			; GraphicsEngine::`scalar deleting destructor'
_TEXT	ENDS
PUBLIC	?ProcessProgram@ProgramEngine@@QAEJXZ		; ProgramEngine::ProcessProgram
EXTRN	?DebugRender@WinEngine@@QAEXXZ:PROC		; WinEngine::DebugRender
EXTRN	?win_engine@@3PAVWinEngine@@A:DWORD		; win_engine
EXTRN	?frame_counter@@3JA:DWORD			; frame_counter
EXTRN	?ProcessGraphics@GraphicsEngine@@QAEXXZ:PROC	; GraphicsEngine::ProcessGraphics
; Function compile flags: /Odtp /RTCsu /ZI
;	COMDAT ?ProcessProgram@ProgramEngine@@QAEJXZ
_TEXT	SEGMENT
tv64 = -208						; size = 4
_this$ = -8						; size = 4
?ProcessProgram@ProgramEngine@@QAEJXZ PROC		; ProgramEngine::ProcessProgram, COMDAT
; _this$ = ecx
; Line 30
	push	ebp
	mov	ebp, esp
	sub	esp, 208				; 000000d0H
	push	ebx
	push	esi
	push	edi
	push	ecx
	lea	edi, DWORD PTR [ebp-208]
	mov	ecx, 52					; 00000034H
	mov	eax, -858993460				; ccccccccH
	rep stosd
	pop	ecx
	mov	DWORD PTR _this$[ebp], ecx
; Line 31
	mov	eax, DWORD PTR _this$[ebp]
	mov	ecx, DWORD PTR [eax]
	mov	DWORD PTR tv64[ebp], ecx
	cmp	DWORD PTR tv64[ebp], 1
	je	SHORT $LN2@ProcessPro
	cmp	DWORD PTR tv64[ebp], 2
	je	SHORT $LN1@ProcessPro
	jmp	SHORT $LN3@ProcessPro
$LN2@ProcessPro:
; Line 33
	mov	eax, DWORD PTR _this$[ebp]
	mov	ecx, DWORD PTR [eax+8]
	call	?ProcessGraphics@GraphicsEngine@@QAEXXZ	; GraphicsEngine::ProcessGraphics
; Line 34
	jmp	SHORT $LN3@ProcessPro
$LN1@ProcessPro:
; Line 36
	mov	eax, DWORD PTR ?frame_counter@@3JA	; frame_counter
	add	eax, 1
	mov	DWORD PTR ?frame_counter@@3JA, eax	; frame_counter
; Line 37
	mov	ecx, DWORD PTR ?win_engine@@3PAVWinEngine@@A ; win_engine
	call	?DebugRender@WinEngine@@QAEXXZ		; WinEngine::DebugRender
$LN3@ProcessPro:
; Line 40
	xor	eax, eax
; Line 41
	pop	edi
	pop	esi
	pop	ebx
	add	esp, 208				; 000000d0H
	cmp	ebp, esp
	call	__RTC_CheckEsp
	mov	esp, ebp
	pop	ebp
	ret	0
?ProcessProgram@ProgramEngine@@QAEJXZ ENDP		; ProgramEngine::ProcessProgram
_TEXT	ENDS
END
